target datalayout = "e-m:e-p270:32:32-p271:32:32-p272:64:64-i64:64-i128:128-f80:128-n8:16:32:64-S128"
target triple = "x86_64-pc-linux-gnu"

%class.Register = type { i32 }
%class.XMMRegister = type { i32 }
%class.Metadata = type { ptr }
%class.AccessFlags = type { i32 }
%class.Label = type <{ i32, [4 x i32], i32, ptr, i8, [7 x i8] }>
%class.Address = type { %class.Register, %class.Register, %class.XMMRegister, i32, i32, i8, [3 x i8], %class.RelocationHolder }
%class.RelocationHolder = type { [40 x i8] }
%class.Method = type { %class.Metadata, ptr, ptr, ptr, ptr, %class.AccessFlags, i32, %class.MethodFlags, i16, %class.JfrTraceFlag, ptr, ptr, ptr, ptr }
%class.MethodFlags = type { i32 }
%class.JfrTraceFlag = type { i16 }
%class.anon = type { i8 }
%class.methodHandle = type { ptr, ptr }
%class.oopDesc = type { %class.markWord, %"union.oopDesc::_metadata" }
%class.markWord = type { i64 }
%"union.oopDesc::_metadata" = type { ptr }
%class.Relocation = type <{ ptr, ptr, i32, [4 x i8] }>

@LockingMode = external global i32, align 4
@_ZL5noreg = internal constant %class.Register { i32 -1 }, align 4
@_ZL6xnoreg = internal constant %class.XMMRegister { i32 -1 }, align 4
@_ZTV10Relocation = external unnamed_addr constant { [11 x ptr] }, align 8

; Function Attrs: mustprogress nounwind uwtable
define linkonce_odr hidden void @_ZN10RelocationC2EN9relocInfo9relocTypeE(ptr noundef nonnull align 8 dereferenceable(20) %0, i32 noundef %1) unnamed_addr #1 comdat align 2 {
  %3 = alloca ptr, align 8
  %4 = alloca i32, align 4
  store ptr %0, ptr %3, align 8
  store i32 %1, ptr %4, align 4
  %5 = load ptr, ptr %3, align 8
  store ptr getelementptr inbounds inrange(-16, 72) ({ [11 x ptr] }, ptr @_ZTV10Relocation, i32 0, i32 0, i32 2), ptr %5, align 8
  %6 = getelementptr inbounds %class.Relocation, ptr %5, i32 0, i32 1
  store ptr null, ptr %6, align 8
  %7 = getelementptr inbounds %class.Relocation, ptr %5, i32 0, i32 2
  %8 = load i32, ptr %4, align 4
  store i32 %8, ptr %7, align 8
  ret void
}

; Function Attrs: mustprogress nounwind uwtable
define linkonce_odr hidden void @_ZN10RelocationC2Ev(ptr noundef nonnull align 8 dereferenceable(20) %0) unnamed_addr #1 comdat align 2 {
  %2 = alloca ptr, align 8
  store ptr %0, ptr %2, align 8
  %3 = load ptr, ptr %2, align 8
  call void @_ZN10RelocationC2EN9relocInfo9relocTypeE(ptr noundef nonnull align 8 dereferenceable(20) %3, i32 noundef 0)
  ret void
}

; Function Attrs: mustprogress nounwind uwtable
define linkonce_odr hidden void @_ZN16RelocationHolder18emplace_relocationI10RelocationJEEEvDpRKT0_(ptr noundef nonnull align 8 dereferenceable(40) %0) #1 comdat align 2 {
  %2 = alloca ptr, align 8
  %3 = alloca ptr, align 8
  store ptr %0, ptr %2, align 8
  %4 = load ptr, ptr %2, align 8
  %5 = getelementptr inbounds %class.RelocationHolder, ptr %4, i32 0, i32 0
  %6 = getelementptr inbounds [40 x i8], ptr %5, i64 0, i64 0
  call void @_ZN10RelocationC2Ev(ptr noundef nonnull align 8 dereferenceable(20) %6)
  store ptr %6, ptr %3, align 8
  ret void
}

; Function Attrs: mustprogress nounwind uwtable
define linkonce_odr hidden void @_ZN16RelocationHolderC2I10RelocationJEEENS_9ConstructIT_EEDpRKT0_(ptr noundef nonnull align 8 dereferenceable(40) %0) unnamed_addr #1 comdat align 2 {
  %2 = alloca ptr, align 8
  store ptr %0, ptr %2, align 8
  %3 = load ptr, ptr %2, align 8
  call void @_ZN16RelocationHolder18emplace_relocationI10RelocationJEEEvDpRKT0_(ptr noundef nonnull align 8 dereferenceable(40) %3)
  ret void
}

; Function Attrs: mustprogress nounwind uwtable
define linkonce_odr hidden void @_ZN16RelocationHolderC2Ev(ptr noundef nonnull align 8 dereferenceable(40) %0) unnamed_addr #1 comdat align 2 {
  %2 = alloca ptr, align 8
  store ptr %0, ptr %2, align 8
  %3 = load ptr, ptr %2, align 8
  call void @_ZN16RelocationHolderC2I10RelocationJEEENS_9ConstructIT_EEDpRKT0_(ptr noundef nonnull align 8 dereferenceable(40) %3)
  ret void
}

; Function Attrs: mustprogress nounwind uwtable
define linkonce_odr hidden noundef i64 @_ZZN7oopDesc20mark_offset_in_bytesEvENKUlvE_clEv(ptr noundef nonnull align 1 dereferenceable(1) %0) #1 comdat align 2 {
  %2 = alloca ptr, align 8
  %3 = alloca [16 x i8], align 16
  %4 = alloca ptr, align 8
  %5 = alloca ptr, align 8
  store ptr %0, ptr %2, align 8
  %6 = getelementptr inbounds [16 x i8], ptr %3, i64 0, i64 0
  store ptr %6, ptr %4, align 8
  %7 = load ptr, ptr %4, align 8
  %8 = getelementptr inbounds %class.oopDesc, ptr %7, i32 0, i32 0
  store ptr %8, ptr %5, align 8
  %9 = load ptr, ptr %5, align 8
  %10 = getelementptr inbounds [16 x i8], ptr %3, i64 0, i64 0
  %11 = ptrtoint ptr %9 to i64
  %12 = ptrtoint ptr %10 to i64
  %13 = sub i64 %11, %12
  ret i64 %13
}

; Function Attrs: mustprogress nounwind uwtable
define linkonce_odr hidden noundef ptr @_ZNK12methodHandle12non_null_objEv(ptr noundef nonnull align 8 dereferenceable(16) %0) #1 comdat align 2 {
  %2 = alloca ptr, align 8
  store ptr %0, ptr %2, align 8
  %3 = load ptr, ptr %2, align 8
  %4 = getelementptr inbounds %class.methodHandle, ptr %3, i32 0, i32 0
  %5 = load ptr, ptr %4, align 8
  ret ptr %5
}

; Function Attrs: mustprogress nounwind uwtable
define linkonce_odr hidden void @_ZN5Label4initEv(ptr noundef nonnull align 8 dereferenceable(33) %0) #1 comdat align 2 {
  %2 = alloca ptr, align 8
  store ptr %0, ptr %2, align 8
  %3 = load ptr, ptr %2, align 8
  %4 = getelementptr inbounds %class.Label, ptr %3, i32 0, i32 0
  store i32 -1, ptr %4, align 8
  %5 = getelementptr inbounds %class.Label, ptr %3, i32 0, i32 2
  store i32 0, ptr %5, align 4
  %6 = getelementptr inbounds %class.Label, ptr %3, i32 0, i32 3
  store ptr null, ptr %6, align 8
  %7 = getelementptr inbounds %class.Label, ptr %3, i32 0, i32 4
  store i8 0, ptr %7, align 8
  ret void
}

; Function Attrs: mustprogress nounwind uwtable
define linkonce_odr hidden void @_ZN14MacroAssembler7testptrE8Registeri(ptr noundef nonnull align 8 dereferenceable(40) %0, i32 %1, i32 noundef %2) #1 comdat align 2 {
  %4 = alloca %class.Register, align 4
  %5 = alloca ptr, align 8
  %6 = alloca i32, align 4
  %7 = alloca %class.Register, align 4
  %8 = getelementptr inbounds %class.Register, ptr %4, i32 0, i32 0
  store i32 %1, ptr %8, align 4
  store ptr %0, ptr %5, align 8
  store i32 %2, ptr %6, align 4
  %9 = load ptr, ptr %5, align 8
  call void @llvm.memcpy.p0.p0.i64(ptr align 4 %7, ptr align 4 %4, i64 4, i1 false)
  %10 = load i32, ptr %6, align 4
  %11 = getelementptr inbounds %class.Register, ptr %7, i32 0, i32 0
  %12 = load i32, ptr %11, align 4
  call void @_ZN14MacroAssembler5testqE8Registeri(ptr noundef nonnull align 8 dereferenceable(40) %9, i32 %12, i32 noundef %10)
  ret void
}

; Function Attrs: mustprogress nounwind uwtable
define linkonce_odr hidden void @_ZN7AddressC2E8Registeri(ptr noundef nonnull align 8 dereferenceable(64) %0, i32 %1, i32 noundef %2) unnamed_addr #1 comdat align 2 {
  %4 = alloca %class.Register, align 4
  %5 = alloca ptr, align 8
  %6 = alloca i32, align 4
  %7 = getelementptr inbounds %class.Register, ptr %4, i32 0, i32 0
  store i32 %1, ptr %7, align 4
  store ptr %0, ptr %5, align 8
  store i32 %2, ptr %6, align 4
  %8 = load ptr, ptr %5, align 8
  %9 = getelementptr inbounds %class.Address, ptr %8, i32 0, i32 0
  call void @llvm.memcpy.p0.p0.i64(ptr align 8 %9, ptr align 4 %4, i64 4, i1 false)
  %10 = getelementptr inbounds %class.Address, ptr %8, i32 0, i32 1
  call void @llvm.memcpy.p0.p0.i64(ptr align 4 %10, ptr align 4 @_ZL5noreg, i64 4, i1 false)
  %11 = getelementptr inbounds %class.Address, ptr %8, i32 0, i32 2
  call void @llvm.memcpy.p0.p0.i64(ptr align 8 %11, ptr align 4 @_ZL6xnoreg, i64 4, i1 false)
  %12 = getelementptr inbounds %class.Address, ptr %8, i32 0, i32 3
  store i32 -1, ptr %12, align 4
  %13 = getelementptr inbounds %class.Address, ptr %8, i32 0, i32 4
  %14 = load i32, ptr %6, align 4
  store i32 %14, ptr %13, align 8
  %15 = getelementptr inbounds %class.Address, ptr %8, i32 0, i32 5
  store i8 0, ptr %15, align 4
  %16 = getelementptr inbounds %class.Address, ptr %8, i32 0, i32 7
  call void @_ZN16RelocationHolderC2Ev(ptr noundef nonnull align 8 dereferenceable(40) %16)
  ret void
}

; Function Attrs: mustprogress nounwind uwtable
define linkonce_odr hidden noundef i32 @_ZN7oopDesc20mark_offset_in_bytesEv() #1 comdat align 2 {
  %1 = alloca %class.anon, align 1
  %2 = call noundef i64 @_ZZN7oopDesc20mark_offset_in_bytesEvENKUlvE_clEv(ptr noundef nonnull align 1 dereferenceable(1) %1)
  %3 = trunc i64 %2 to i32
  ret i32 %3
}

; Function Attrs: mustprogress nounwind uwtable
define linkonce_odr hidden void @_ZN5LabelD2Ev(ptr noundef nonnull align 8 dereferenceable(33) %0) unnamed_addr #1 comdat align 2 {
  %2 = alloca ptr, align 8
  store ptr %0, ptr %2, align 8
  ret void
}

; Function Attrs: mustprogress nounwind uwtable
define linkonce_odr hidden void @_ZN14MacroAssembler6xorptrE8RegisterS0_(ptr noundef nonnull align 8 dereferenceable(40) %0, i32 %1, i32 %2) #1 comdat align 2 {
  %4 = alloca %class.Register, align 4
  %5 = alloca %class.Register, align 4
  %6 = alloca ptr, align 8
  %7 = alloca %class.Register, align 4
  %8 = alloca %class.Register, align 4
  %9 = getelementptr inbounds %class.Register, ptr %4, i32 0, i32 0
  store i32 %1, ptr %9, align 4
  %10 = getelementptr inbounds %class.Register, ptr %5, i32 0, i32 0
  store i32 %2, ptr %10, align 4
  store ptr %0, ptr %6, align 8
  %11 = load ptr, ptr %6, align 8
  call void @llvm.memcpy.p0.p0.i64(ptr align 4 %7, ptr align 4 %4, i64 4, i1 false)
  call void @llvm.memcpy.p0.p0.i64(ptr align 4 %8, ptr align 4 %5, i64 4, i1 false)
  %12 = getelementptr inbounds %class.Register, ptr %7, i32 0, i32 0
  %13 = load i32, ptr %12, align 4
  %14 = getelementptr inbounds %class.Register, ptr %8, i32 0, i32 0
  %15 = load i32, ptr %14, align 4
  call void @_ZN9Assembler4xorqE8RegisterS0_(ptr noundef nonnull align 8 dereferenceable(40) %11, i32 %13, i32 %15)
  ret void
}

; Function Attrs: mustprogress nounwind uwtable
define linkonce_odr hidden void @_ZN14MacroAssembler6cmpptrE8Registeri(ptr noundef nonnull align 8 dereferenceable(40) %0, i32 %1, i32 noundef %2) #1 comdat align 2 {
  %4 = alloca %class.Register, align 4
  %5 = alloca ptr, align 8
  %6 = alloca i32, align 4
  %7 = alloca %class.Register, align 4
  %8 = getelementptr inbounds %class.Register, ptr %4, i32 0, i32 0
  store i32 %1, ptr %8, align 4
  store ptr %0, ptr %5, align 8
  store i32 %2, ptr %6, align 4
  %9 = load ptr, ptr %5, align 8
  call void @llvm.memcpy.p0.p0.i64(ptr align 4 %7, ptr align 4 %4, i64 4, i1 false)
  %10 = load i32, ptr %6, align 4
  %11 = getelementptr inbounds %class.Register, ptr %7, i32 0, i32 0
  %12 = load i32, ptr %11, align 4
  call void @_ZN9Assembler4cmpqE8Registeri(ptr noundef nonnull align 8 dereferenceable(40) %9, i32 %12, i32 noundef %10)
  ret void
}

; Function Attrs: mustprogress nounwind uwtable
define linkonce_odr hidden noundef i32 @_ZNK6Method12intrinsic_idEv(ptr noundef nonnull align 8 dereferenceable(88) %0) #1 comdat align 2 {
  %2 = alloca ptr, align 8
  store ptr %0, ptr %2, align 8
  %3 = load ptr, ptr %2, align 8
  %4 = getelementptr inbounds %class.Method, ptr %3, i32 0, i32 8
  %5 = load i16, ptr %4, align 4
  %6 = zext i16 %5 to i32
  ret i32 %6
}

; Function Attrs: mustprogress nounwind uwtable
define linkonce_odr hidden noundef ptr @_ZNK12methodHandleptEv(ptr noundef nonnull align 8 dereferenceable(16) %0) #1 comdat align 2 {
  %2 = alloca ptr, align 8
  store ptr %0, ptr %2, align 8
  %3 = load ptr, ptr %2, align 8
  %4 = call noundef ptr @_ZNK12methodHandle12non_null_objEv(ptr noundef nonnull align 8 dereferenceable(16) %3)
  ret ptr %4
}

; Function Attrs: mustprogress nounwind uwtable
define linkonce_odr hidden void @_ZN5LabelC2Ev(ptr noundef nonnull align 8 dereferenceable(33) %0) unnamed_addr #1 comdat align 2 {
  %2 = alloca ptr, align 8
  store ptr %0, ptr %2, align 8
  %3 = load ptr, ptr %2, align 8
  call void @_ZN5Label4initEv(ptr noundef nonnull align 8 dereferenceable(33) %3)
  ret void
}

; Function Attrs: mustprogress nounwind uwtable
define hidden void @_ZN13SharedRuntime40inline_check_hashcode_from_object_headerEP14MacroAssemblerRK12methodHandle8RegisterS5_(ptr noundef %0, ptr noundef nonnull align 8 dereferenceable(16) %1, i32 %2, i32 %3) #1 align 2 {
  %5 = alloca %class.Register, align 4
  %6 = alloca %class.Register, align 4
  %7 = alloca ptr, align 8
  %8 = alloca ptr, align 8
  %9 = alloca %class.Label, align 8
  %10 = alloca %class.Label, align 8
  %11 = alloca %class.Register, align 4
  %12 = alloca %class.Register, align 4
  %13 = alloca %class.Register, align 4
  %14 = alloca %class.Register, align 4
  %15 = alloca %class.Address, align 8
  %16 = alloca %class.Register, align 4
  %17 = alloca %class.Register, align 4
  %18 = alloca %class.Register, align 4
  %19 = alloca %class.Register, align 4
  %20 = alloca %class.Register, align 4
  %21 = getelementptr inbounds %class.Register, ptr %5, i32 0, i32 0
  store i32 %2, ptr %21, align 4
  %22 = getelementptr inbounds %class.Register, ptr %6, i32 0, i32 0
  store i32 %3, ptr %22, align 4
  store ptr %0, ptr %7, align 8
  store ptr %1, ptr %8, align 8
  call void @_ZN5LabelC2Ev(ptr noundef nonnull align 8 dereferenceable(33) %9)
  %23 = load ptr, ptr %8, align 8
  %24 = call noundef ptr @_ZNK12methodHandleptEv(ptr noundef nonnull align 8 dereferenceable(16) %23)
  %25 = call noundef i32 @_ZNK6Method12intrinsic_idEv(ptr noundef nonnull align 8 dereferenceable(88) %24)
  %26 = icmp eq i32 %25, 91
  br i1 %26, label %27, label %39

27:                                               ; preds = %4
  call void @_ZN5LabelC2Ev(ptr noundef nonnull align 8 dereferenceable(33) %10)
  %28 = load ptr, ptr %7, align 8
  call void @llvm.memcpy.p0.p0.i64(ptr align 4 %11, ptr align 4 %5, i64 4, i1 false)
  %29 = getelementptr inbounds %class.Register, ptr %11, i32 0, i32 0
  %30 = load i32, ptr %29, align 4
  call void @_ZN14MacroAssembler6cmpptrE8Registeri(ptr noundef nonnull align 8 dereferenceable(40) %28, i32 %30, i32 noundef 0)
  %31 = load ptr, ptr %7, align 8
  call void @_ZN9Assembler3jccENS_9ConditionER5Labelb(ptr noundef nonnull align 8 dereferenceable(40) %31, i32 noundef 5, ptr noundef nonnull align 8 dereferenceable(33) %10, i1 noundef zeroext true)
  %32 = load ptr, ptr %7, align 8
  call void @llvm.memcpy.p0.p0.i64(ptr align 4 %12, ptr align 4 %6, i64 4, i1 false)
  call void @llvm.memcpy.p0.p0.i64(ptr align 4 %13, ptr align 4 %6, i64 4, i1 false)
  %33 = getelementptr inbounds %class.Register, ptr %12, i32 0, i32 0
  %34 = load i32, ptr %33, align 4
  %35 = getelementptr inbounds %class.Register, ptr %13, i32 0, i32 0
  %36 = load i32, ptr %35, align 4
  call void @_ZN14MacroAssembler6xorptrE8RegisterS0_(ptr noundef nonnull align 8 dereferenceable(40) %32, i32 %34, i32 %36)
  %37 = load ptr, ptr %7, align 8
  call void @_ZN9Assembler3retEi(ptr noundef nonnull align 8 dereferenceable(40) %37, i32 noundef 0)
  %38 = load ptr, ptr %7, align 8
  call void @_ZN17AbstractAssembler4bindER5Label(ptr noundef nonnull align 8 dereferenceable(24) %38, ptr noundef nonnull align 8 dereferenceable(33) %10)
  call void @_ZN5LabelD2Ev(ptr noundef nonnull align 8 dereferenceable(33) %10) #4
  br label %39

39:                                               ; preds = %27, %4
  %40 = load ptr, ptr %7, align 8
  call void @llvm.memcpy.p0.p0.i64(ptr align 4 %14, ptr align 4 %6, i64 4, i1 false)
  call void @llvm.memcpy.p0.p0.i64(ptr align 4 %16, ptr align 4 %5, i64 4, i1 false)
  %41 = call noundef i32 @_ZN7oopDesc20mark_offset_in_bytesEv()
  %42 = getelementptr inbounds %class.Register, ptr %16, i32 0, i32 0
  %43 = load i32, ptr %42, align 4
  call void @_ZN7AddressC2E8Registeri(ptr noundef nonnull align 8 dereferenceable(64) %15, i32 %43, i32 noundef %41)
  %44 = getelementptr inbounds %class.Register, ptr %14, i32 0, i32 0
  %45 = load i32, ptr %44, align 4
  call void @_ZN14MacroAssembler6movptrE8Register7Address(ptr noundef nonnull align 8 dereferenceable(40) %40, i32 %45, ptr noundef %15)
  %46 = load i32, ptr @LockingMode, align 4
  %47 = icmp eq i32 %46, 2
  br i1 %47, label %48, label %53

48:                                               ; preds = %39
  %49 = load ptr, ptr %7, align 8
  call void @llvm.memcpy.p0.p0.i64(ptr align 4 %17, ptr align 4 %6, i64 4, i1 false)
  %50 = getelementptr inbounds %class.Register, ptr %17, i32 0, i32 0
  %51 = load i32, ptr %50, align 4
  call void @_ZN14MacroAssembler7testptrE8Registeri(ptr noundef nonnull align 8 dereferenceable(40) %49, i32 %51, i32 noundef 2)
  %52 = load ptr, ptr %7, align 8
  call void @_ZN9Assembler3jccENS_9ConditionER5Labelb(ptr noundef nonnull align 8 dereferenceable(40) %52, i32 noundef 5, ptr noundef nonnull align 8 dereferenceable(33) %9, i1 noundef zeroext true)
  br label %58

53:                                               ; preds = %39
  %54 = load ptr, ptr %7, align 8
  call void @llvm.memcpy.p0.p0.i64(ptr align 4 %18, ptr align 4 %6, i64 4, i1 false)
  %55 = getelementptr inbounds %class.Register, ptr %18, i32 0, i32 0
  %56 = load i32, ptr %55, align 4
  call void @_ZN14MacroAssembler7testptrE8Registeri(ptr noundef nonnull align 8 dereferenceable(40) %54, i32 %56, i32 noundef 1)
  %57 = load ptr, ptr %7, align 8
  call void @_ZN9Assembler3jccENS_9ConditionER5Labelb(ptr noundef nonnull align 8 dereferenceable(40) %57, i32 noundef 4, ptr noundef nonnull align 8 dereferenceable(33) %9, i1 noundef zeroext true)
  br label %58

58:                                               ; preds = %53, %48
  %59 = load ptr, ptr %7, align 8
  call void @llvm.memcpy.p0.p0.i64(ptr align 4 %19, ptr align 4 %6, i64 4, i1 false)
  %60 = getelementptr inbounds %class.Register, ptr %19, i32 0, i32 0
  %61 = load i32, ptr %60, align 4
  call void @_ZN14MacroAssembler6shrptrE8Registeri(ptr noundef nonnull align 8 dereferenceable(40) %59, i32 %61, i32 noundef 8)
  %62 = load ptr, ptr %7, align 8
  call void @llvm.memcpy.p0.p0.i64(ptr align 4 %20, ptr align 4 %6, i64 4, i1 false)
  %63 = getelementptr inbounds %class.Register, ptr %20, i32 0, i32 0
  %64 = load i32, ptr %63, align 4
  call void @_ZN14MacroAssembler6andptrE8Registeri(ptr noundef nonnull align 8 dereferenceable(40) %62, i32 %64, i32 noundef 2147483647)
  %65 = load ptr, ptr %7, align 8
  call void @_ZN9Assembler3jccENS_9ConditionER5Labelb(ptr noundef nonnull align 8 dereferenceable(40) %65, i32 noundef 4, ptr noundef nonnull align 8 dereferenceable(33) %9, i1 noundef zeroext true)
  %66 = load ptr, ptr %7, align 8
  call void @_ZN9Assembler3retEi(ptr noundef nonnull align 8 dereferenceable(40) %66, i32 noundef 0)
  %67 = load ptr, ptr %7, align 8
  call void @_ZN17AbstractAssembler4bindER5Label(ptr noundef nonnull align 8 dereferenceable(24) %67, ptr noundef nonnull align 8 dereferenceable(33) %9)
  call void @_ZN5LabelD2Ev(ptr noundef nonnull align 8 dereferenceable(33) %9) #4
  ret void
}