; Function Attrs: mustprogress nounwind uwtable
define hidden void @_ZN13SharedRuntime40inline_check_hashcode_from_object_headerEP14MacroAssemblerRK12methodHandle8RegisterS5_(ptr noundef %0, ptr nocapture noundef nonnull readonly align 8 dereferenceable(16) %1, i32 %2, i32 %3) local_unnamed_addr #0 align 2 {
  %5 = alloca %class.Label, align 8
  %6 = alloca %class.Label, align 8
  %7 = alloca %class.Address, align 8
  store i32 -1, ptr %5, align 8
  %8 = getelementptr inbounds i8, ptr %5, i64 20
  store i32 0, ptr %8, align 4
  %9 = getelementptr inbounds i8, ptr %5, i64 24
  store ptr null, ptr %9, align 8
  %10 = getelementptr inbounds i8, ptr %5, i64 32
  store i8 0, ptr %10, align 8
  %11 = load ptr, ptr %1, align 8
  %12 = getelementptr inbounds i8, ptr %11, i64 52
  %13 = load i16, ptr %12, align 4
  %14 = icmp eq i16 %13, 91
  br i1 %14, label %15, label %19

15:                                               ; preds = %4
  store i32 -1, ptr %6, align 8
  %16 = getelementptr inbounds i8, ptr %6, i64 20
  store i32 0, ptr %16, align 4
  %17 = getelementptr inbounds i8, ptr %6, i64 24
  store ptr null, ptr %17, align 8
  %18 = getelementptr inbounds i8, ptr %6, i64 32
  store i8 0, ptr %18, align 8
  tail call void @_ZN9Assembler4cmpqE8Registeri(ptr noundef nonnull align 8 dereferenceable(40) %0, i32 %2, i32 noundef 0) #3
  call void @_ZN9Assembler3jccENS_9ConditionER5Labelb(ptr noundef nonnull align 8 dereferenceable(40) %0, i32 noundef 5, ptr noundef nonnull align 8 dereferenceable(33) %6, i1 noundef zeroext true) #3
  call void @_ZN9Assembler4xorqE8RegisterS0_(ptr noundef nonnull align 8 dereferenceable(40) %0, i32 %3, i32 %3) #3
  call void @_ZN9Assembler3retEi(ptr noundef nonnull align 8 dereferenceable(40) %0, i32 noundef 0) #3
  call void @_ZN17AbstractAssembler4bindER5Label(ptr noundef nonnull align 8 dereferenceable(24) %0, ptr noundef nonnull align 8 dereferenceable(33) %6) #3
  br label %19

19:                                               ; preds = %15, %4
  store i32 %2, ptr %7, align 8
  %20 = getelementptr inbounds i8, ptr %7, i64 4
  store <4 x i32> <i32 -1, i32 -1, i32 -1, i32 0>, ptr %20, align 4
  %21 = getelementptr inbounds i8, ptr %7, i64 20
  store i8 0, ptr %21, align 4
  %22 = getelementptr inbounds i8, ptr %7, i64 24
  store ptr getelementptr inbounds inrange(-16, 72) (i8, ptr @_ZTV10Relocation, i64 16), ptr %22, align 8
  %23 = getelementptr inbounds i8, ptr %7, i64 32
  store ptr null, ptr %23, align 8
  %24 = getelementptr inbounds i8, ptr %7, i64 40
  store i32 0, ptr %24, align 8
  call void @_ZN14MacroAssembler6movptrE8Register7Address(ptr noundef nonnull align 8 dereferenceable(40) %0, i32 %3, ptr noundef nonnull %7) #3
  %25 = load i32, ptr @LockingMode, align 4
  %26 = icmp eq i32 %25, 2
  %. = select i1 %26, i32 2, i32 1
  %.34 = select i1 %26, i32 5, i32 4
  call void @_ZN14MacroAssembler5testqE8Registeri(ptr noundef nonnull align 8 dereferenceable(40) %0, i32 %3, i32 noundef %.) #3
  call void @_ZN9Assembler3jccENS_9ConditionER5Labelb(ptr noundef nonnull align 8 dereferenceable(40) %0, i32 noundef %.34, ptr noundef nonnull align 8 dereferenceable(33) %5, i1 noundef zeroext true) #3
  call void @_ZN14MacroAssembler6shrptrE8Registeri(ptr noundef nonnull align 8 dereferenceable(40) %0, i32 %3, i32 noundef 8) #3
  call void @_ZN14MacroAssembler6andptrE8Registeri(ptr noundef nonnull align 8 dereferenceable(40) %0, i32 %3, i32 noundef 2147483647) #3
  call void @_ZN9Assembler3jccENS_9ConditionER5Labelb(ptr noundef nonnull align 8 dereferenceable(40) %0, i32 noundef 4, ptr noundef nonnull align 8 dereferenceable(33) %5, i1 noundef zeroext true) #3
  call void @_ZN9Assembler3retEi(ptr noundef nonnull align 8 dereferenceable(40) %0, i32 noundef 0) #3
  call void @_ZN17AbstractAssembler4bindER5Label(ptr noundef nonnull align 8 dereferenceable(24) %0, ptr noundef nonnull align 8 dereferenceable(33) %5) #3
  ret void
}